; Function Attrs: nounwind uwtable
define void @bufferevent_trigger(ptr noundef %0, i16 noundef signext %1, i32 noundef %2) local_unnamed_addr #0 {
  %4 = getelementptr inbounds nuw i8, ptr %0, i64 448
  %5 = load ptr, ptr %4, align 8
  %.not.i = icmp eq ptr %5, null
  br i1 %.not.i, label %bufferevent_incref_and_lock_.exit, label %6

6:                                                ; preds = %3
  %7 = load ptr, ptr getelementptr inbounds nuw (i8, ptr @evthread_lock_fns_, i64 24), align 8
  %8 = tail call i32 %7(i32 noundef 0, ptr noundef nonnull %5) #7
  br label %bufferevent_incref_and_lock_.exit

bufferevent_incref_and_lock_.exit:                ; preds = %3, %6
  %9 = getelementptr inbounds nuw i8, ptr %0, i64 444
  %10 = load i32, ptr %9, align 4
  %11 = add nsw i32 %10, 1
  store i32 %11, ptr %9, align 4
  %12 = and i32 %2, 65540
  %13 = and i16 %1, 2
  %.not.i4 = icmp eq i16 %13, 0
  br i1 %.not.i4, label %22, label %14

14:                                               ; preds = %bufferevent_incref_and_lock_.exit
  %.not11.i = icmp samesign ult i32 %12, 65536
  br i1 %.not11.i, label %15, label %21

15:                                               ; preds = %14
  %16 = getelementptr inbounds nuw i8, ptr %0, i64 256
  %17 = load ptr, ptr %16, align 8
  %18 = tail call i64 @evbuffer_get_length(ptr noundef %17) #7
  %19 = getelementptr inbounds nuw i8, ptr %0, i64 272
  %20 = load i64, ptr %19, align 8
  %.not12.i = icmp ult i64 %18, %20
  br i1 %.not12.i, label %22, label %21

21:                                               ; preds = %15, %14
  tail call void @bufferevent_run_readcb_(ptr noundef nonnull %0, i32 noundef range(i32 0, 65541) %12)
  br label %22

22:                                               ; preds = %21, %15, %bufferevent_incref_and_lock_.exit
  %23 = and i16 %1, 4
  %.not13.i = icmp eq i16 %23, 0
  br i1 %.not13.i, label %bufferevent_trigger_nolock_.exit, label %24

24:                                               ; preds = %22
  %.not14.i = icmp samesign ult i32 %12, 65536
  br i1 %.not14.i, label %25, label %31

25:                                               ; preds = %24
  %26 = getelementptr inbounds nuw i8, ptr %0, i64 264
  %27 = load ptr, ptr %26, align 8
  %28 = tail call i64 @evbuffer_get_length(ptr noundef %27) #7
  %29 = getelementptr inbounds nuw i8, ptr %0, i64 288
  %30 = load i64, ptr %29, align 8
  %.not15.i = icmp ugt i64 %28, %30
  br i1 %.not15.i, label %bufferevent_trigger_nolock_.exit, label %31

31:                                               ; preds = %25, %24
  %32 = getelementptr inbounds nuw i8, ptr %0, i64 312
  %33 = load ptr, ptr %32, align 8
  %34 = icmp eq ptr %33, null
  br i1 %34, label %bufferevent_trigger_nolock_.exit, label %35

35:                                               ; preds = %31
  %36 = getelementptr inbounds nuw i8, ptr %0, i64 440
  %37 = load i32, ptr %36, align 8
  %38 = or i32 %37, %2
  %39 = and i32 %38, 4
  %.not.i5 = icmp eq i32 %39, 0
  br i1 %.not.i5, label %59, label %40

40:                                               ; preds = %35
  %41 = getelementptr inbounds nuw i8, ptr %0, i64 384
  %42 = load i8, ptr %41, align 8
  %43 = or i8 %42, 4
  store i8 %43, ptr %41, align 8
  %44 = load ptr, ptr %0, align 8
  %45 = getelementptr inbounds nuw i8, ptr %0, i64 400
  %46 = tail call i32 @event_deferred_cb_schedule_(ptr noundef %44, ptr noundef nonnull %45) #7
  %.not10.i = icmp eq i32 %46, 0
  br i1 %.not10.i, label %bufferevent_trigger_nolock_.exit, label %47

47:                                               ; preds = %40
  %48 = load ptr, ptr %4, align 8
  %.not.i.i = icmp eq ptr %48, null
  br i1 %.not.i.i, label %.thread.i.i, label %51

.thread.i.i:                                      ; preds = %47
  %49 = load i32, ptr %9, align 4
  %50 = add nsw i32 %49, 1
  store i32 %50, ptr %9, align 4
  br label %bufferevent_trigger_nolock_.exit

51:                                               ; preds = %47
  %52 = load ptr, ptr getelementptr inbounds nuw (i8, ptr @evthread_lock_fns_, i64 24), align 8
  %53 = tail call i32 %52(i32 noundef 0, ptr noundef nonnull %48) #7
  %.pr.i.i = load ptr, ptr %4, align 8
  %54 = load i32, ptr %9, align 4
  %55 = add nsw i32 %54, 1
  store i32 %55, ptr %9, align 4
  %.not9.i.i = icmp eq ptr %.pr.i.i, null
  br i1 %.not9.i.i, label %bufferevent_trigger_nolock_.exit, label %56

56:                                               ; preds = %51
  %57 = load ptr, ptr getelementptr inbounds nuw (i8, ptr @evthread_lock_fns_, i64 32), align 8
  %58 = tail call i32 %57(i32 noundef 0, ptr noundef nonnull %.pr.i.i) #7
  br label %bufferevent_trigger_nolock_.exit

59:                                               ; preds = %35
  %60 = getelementptr inbounds nuw i8, ptr %0, i64 328
  %61 = load ptr, ptr %60, align 8
  tail call void %33(ptr noundef nonnull %0, ptr noundef %61) #7
  br label %bufferevent_trigger_nolock_.exit

bufferevent_trigger_nolock_.exit:                 ; preds = %59, %56, %51, %.thread.i.i, %40, %31, %22, %25
  %62 = tail call i32 @bufferevent_decref_and_unlock_(ptr noundef nonnull %0)
  ret void
}